; Function Attrs: nounwind uwtable
define dso_local void @auth_g_get_ids(ptr noundef %0, ptr noundef initializes((0, 4)) %1, ptr noundef initializes((0, 4)) %2) local_unnamed_addr #2 {
  store i32 99, ptr %1, align 4
  store i32 99, ptr %2, align 4
  %.not = icmp eq ptr %0, null
  br i1 %.not, label %17, label %4

4:                                                ; preds = %3
  %5 = tail call i32 @pthread_rwlock_rdlock(ptr noundef nonnull @context_lock) #12
  %.not13 = icmp eq i32 %5, 0
  br i1 %.not13, label %8, label %6

6:                                                ; preds = %4
  %7 = tail call ptr @__errno_location() #13
  store i32 %5, ptr %7, align 4
  tail call void (ptr, ...) @fatal_abort(ptr noundef nonnull @.str.19, ptr noundef nonnull @__func__.auth_g_get_ids) #11
  unreachable

8:                                                ; preds = %4
  %9 = load ptr, ptr @ops, align 8
  %10 = load i32, ptr %0, align 4
  %11 = sext i32 %10 to i64
  %12 = getelementptr inbounds %struct.auth_ops_t, ptr %9, i64 %11, i32 6
  %13 = load ptr, ptr %12, align 8
  tail call void %13(ptr noundef nonnull %0, ptr noundef nonnull %1, ptr noundef nonnull %2) #12
  %14 = tail call i32 @pthread_rwlock_unlock(ptr noundef nonnull @context_lock) #12
  %.not14 = icmp eq i32 %14, 0
  br i1 %.not14, label %17, label %15

15:                                               ; preds = %8
  %16 = tail call ptr @__errno_location() #13
  store i32 %14, ptr %16, align 4
  tail call void (ptr, ...) @fatal_abort(ptr noundef nonnull @.str.17, ptr noundef nonnull @__func__.auth_g_get_ids) #11
  unreachable

17:                                               ; preds = %8, %3
  ret void
}